target datalayout = "e-m:e-p270:32:32-p271:32:32-p272:64:64-i64:64-i128:128-f80:128-n8:16:32:64-S128"
target triple = "x86_64-pc-linux-gnu"

%struct.buf_t = type { i32, ptr, i32, i32, i8, i8 }

@.str = private unnamed_addr constant [41 x i8] c"%s: Buffer size limit exceeded (%u > %u)\00", align 1
@__func__.create_buf = private unnamed_addr constant [11 x i8] c"create_buf\00", align 1
@.str.1 = private unnamed_addr constant [7 x i8] c"pack.c\00", align 1

; Function Attrs: nounwind uwtable
define dso_local ptr @create_buf(ptr noundef %0, i32 noundef %1) #0 {
  %3 = alloca ptr, align 8
  %4 = alloca ptr, align 8
  %5 = alloca i32, align 4
  %6 = alloca ptr, align 8
  %7 = alloca i32, align 4
  store ptr %0, ptr %4, align 8
  store i32 %1, ptr %5, align 4
  call void @llvm.lifetime.start.p0(i64 8, ptr %6) #9
  %8 = load i32, ptr %5, align 4
  %9 = icmp ugt i32 %8, -65536
  br i1 %9, label %10, label %13

10:                                               ; preds = %2
  %11 = load i32, ptr %5, align 4
  %12 = call i32 (ptr, ...) @error(ptr noundef @.str, ptr noundef @__func__.create_buf, i32 noundef %11, i32 noundef -65536)
  store ptr null, ptr %3, align 8
  store i32 1, ptr %7, align 4
  br label %30

13:                                               ; preds = %2
  %14 = call ptr @slurm_xcalloc(i64 noundef 1, i64 noundef 32, i1 noundef zeroext true, i1 noundef zeroext false, ptr noundef @.str.1, i32 noundef 125, ptr noundef @__func__.create_buf)
  store ptr %14, ptr %6, align 8
  %15 = load ptr, ptr %6, align 8
  %16 = getelementptr inbounds nuw %struct.buf_t, ptr %15, i32 0, i32 0
  store i32 1112884549, ptr %16, align 8
  %17 = load i32, ptr %5, align 4
  %18 = load ptr, ptr %6, align 8
  %19 = getelementptr inbounds nuw %struct.buf_t, ptr %18, i32 0, i32 2
  store i32 %17, ptr %19, align 8
  %20 = load ptr, ptr %6, align 8
  %21 = getelementptr inbounds nuw %struct.buf_t, ptr %20, i32 0, i32 3
  store i32 0, ptr %21, align 4
  %22 = load ptr, ptr %4, align 8
  %23 = load ptr, ptr %6, align 8
  %24 = getelementptr inbounds nuw %struct.buf_t, ptr %23, i32 0, i32 1
  store ptr %22, ptr %24, align 8
  %25 = load ptr, ptr %6, align 8
  %26 = getelementptr inbounds nuw %struct.buf_t, ptr %25, i32 0, i32 4
  store i8 0, ptr %26, align 8
  %27 = load ptr, ptr %6, align 8
  %28 = getelementptr inbounds nuw %struct.buf_t, ptr %27, i32 0, i32 5
  store i8 0, ptr %28, align 1
  %29 = load ptr, ptr %6, align 8
  store ptr %29, ptr %3, align 8
  store i32 1, ptr %7, align 4
  br label %30

30:                                               ; preds = %13, %10
  call void @llvm.lifetime.end.p0(i64 8, ptr %6) #9
  %31 = load ptr, ptr %3, align 8
  ret ptr %31
}