; Function Attrs: nounwind uwtable
define dso_local noundef ptr @create_buf(ptr noundef %0, i32 noundef %1) #0 {
  %3 = icmp ugt i32 %1, -65536
  br i1 %3, label %4, label %6

4:                                                ; preds = %2
  %5 = tail call i32 (ptr, ...) @error(ptr noundef nonnull @.str, ptr noundef nonnull @__func__.create_buf, i32 noundef %1, i32 noundef -65536) #14
  br label %13

6:                                                ; preds = %2
  %7 = tail call ptr @slurm_xcalloc(i64 noundef 1, i64 noundef 32, i1 noundef zeroext true, i1 noundef zeroext false, ptr noundef nonnull @.str.1, i32 noundef 125, ptr noundef nonnull @__func__.create_buf) #14
  store i32 1112884549, ptr %7, align 8
  %8 = getelementptr inbounds nuw i8, ptr %7, i64 16
  store i32 %1, ptr %8, align 8
  %9 = getelementptr inbounds nuw i8, ptr %7, i64 20
  store i32 0, ptr %9, align 4
  %10 = getelementptr inbounds nuw i8, ptr %7, i64 8
  store ptr %0, ptr %10, align 8
  %11 = getelementptr inbounds nuw i8, ptr %7, i64 24
  store i8 0, ptr %11, align 8
  %12 = getelementptr inbounds nuw i8, ptr %7, i64 25
  store i8 0, ptr %12, align 1
  br label %13

13:                                               ; preds = %6, %4
  %.0 = phi ptr [ null, %4 ], [ %7, %6 ]
  ret ptr %.0
}